target datalayout = "e-m:e-p270:32:32-p271:32:32-p272:64:64-i64:64-i128:128-f80:128-n8:16:32:64-S128"
target triple = "x86_64-unknown-linux-gnu"

; Function Attrs: nounwind uwtable
define internal i32 @fls_lu(i64 noundef %x) #0 {
entry:
  %b.addr.i = alloca i8, align 1
  %x.addr = alloca i64, align 8
  store i64 %x, ptr %x.addr, align 8
  %0 = load i64, ptr %x.addr, align 8
  %cmp = icmp ne i64 %0, 0
  %frombool.i = zext i1 %cmp to i8
  store i8 %frombool.i, ptr %b.addr.i, align 1
  %1 = load i8, ptr %b.addr.i, align 1
  %tobool.i = trunc i8 %1 to i1
  br i1 %tobool.i, label %util_assume.exit, label %if.then.i

if.then.i:                                        ; preds = %entry
  unreachable

util_assume.exit:                                 ; preds = %entry
  %2 = load i64, ptr %x.addr, align 8
  %3 = call i64 @llvm.ctlz.i64(i64 %2, i1 true)
  %cast = trunc i64 %3 to i32
  %conv = sext i32 %cast to i64
  %xor = xor i64 63, %conv
  %conv1 = trunc i64 %xor to i32
  ret i32 %conv1
}

; Function Attrs: nounwind uwtable
define internal i32 @fls_u64(i64 noundef %x) #0 {
entry:
  %x.addr = alloca i64, align 8
  store i64 %x, ptr %x.addr, align 8
  %0 = load i64, ptr %x.addr, align 8
  %call = call i32 @fls_lu(i64 noundef %0)
  ret i32 %call
}

; Function Attrs: nounwind uwtable
define internal i32 @lg_floor(i64 noundef %x) #0 {
entry:
  %b.addr.i = alloca i8, align 1
  %x.addr = alloca i64, align 8
  store i64 %x, ptr %x.addr, align 8
  %0 = load i64, ptr %x.addr, align 8
  %cmp = icmp ne i64 %0, 0
  %frombool.i = zext i1 %cmp to i8
  store i8 %frombool.i, ptr %b.addr.i, align 1
  %1 = load i8, ptr %b.addr.i, align 1
  %tobool.i = trunc i8 %1 to i1
  br i1 %tobool.i, label %util_assume.exit, label %if.then.i

if.then.i:                                        ; preds = %entry
  unreachable

util_assume.exit:                                 ; preds = %entry
  %2 = load i64, ptr %x.addr, align 8
  %call = call i32 @fls_u64(i64 noundef %2)
  ret i32 %call
}

; Function Attrs: nounwind uwtable
define internal i32 @sz_size2index_compute(i64 noundef %size) #0 {
entry:
  %retval = alloca i32, align 4
  %size.addr = alloca i64, align 8
  %x = alloca i32, align 4
  %shift = alloca i32, align 4
  %grp = alloca i32, align 4
  %lg_delta = alloca i32, align 4
  %delta_inverse_mask = alloca i64, align 8
  %mod = alloca i32, align 4
  %index = alloca i32, align 4
  store i64 %size, ptr %size.addr, align 8
  %0 = load i64, ptr %size.addr, align 8
  %cmp = icmp ugt i64 %0, 8070450532247928832
  %lnot = xor i1 %cmp, true
  %lnot1 = xor i1 %lnot, true
  %lnot.ext = zext i1 %lnot1 to i32
  %conv = sext i32 %lnot.ext to i64
  %tobool = icmp ne i64 %conv, 0
  br i1 %tobool, label %if.then, label %if.end

if.then:                                          ; preds = %entry
  store i32 235, ptr %retval, align 4
  br label %return

if.end:                                           ; preds = %entry
  %1 = load i64, ptr %size.addr, align 8
  %cmp2 = icmp eq i64 %1, 0
  br i1 %cmp2, label %if.then4, label %if.end5

if.then4:                                         ; preds = %if.end
  store i32 0, ptr %retval, align 4
  br label %return

if.end5:                                          ; preds = %if.end
  %2 = load i64, ptr %size.addr, align 8
  %shl = shl i64 %2, 1
  %sub = sub i64 %shl, 1
  %call = call i32 @lg_floor(i64 noundef %sub)
  store i32 %call, ptr %x, align 4
  %3 = load i32, ptr %x, align 4
  %cmp6 = icmp ult i32 %3, 5
  br i1 %cmp6, label %cond.true, label %cond.false

cond.true:                                        ; preds = %if.end5
  br label %cond.end

cond.false:                                       ; preds = %if.end5
  %4 = load i32, ptr %x, align 4
  %sub8 = sub i32 %4, 5
  br label %cond.end

cond.end:                                         ; preds = %cond.false, %cond.true
  %cond = phi i32 [ 0, %cond.true ], [ %sub8, %cond.false ]
  store i32 %cond, ptr %shift, align 4
  %5 = load i32, ptr %shift, align 4
  %shl9 = shl i32 %5, 2
  store i32 %shl9, ptr %grp, align 4
  %6 = load i32, ptr %x, align 4
  %cmp10 = icmp ult i32 %6, 6
  br i1 %cmp10, label %cond.true12, label %cond.false13

cond.true12:                                      ; preds = %cond.end
  br label %cond.end16

cond.false13:                                     ; preds = %cond.end
  %7 = load i32, ptr %x, align 4
  %sub14 = sub i32 %7, 2
  %sub15 = sub i32 %sub14, 1
  br label %cond.end16

cond.end16:                                       ; preds = %cond.false13, %cond.true12
  %cond17 = phi i32 [ 3, %cond.true12 ], [ %sub15, %cond.false13 ]
  store i32 %cond17, ptr %lg_delta, align 4
  %8 = load i32, ptr %lg_delta, align 4
  %sh_prom = zext i32 %8 to i64
  %shl18 = shl i64 -1, %sh_prom
  store i64 %shl18, ptr %delta_inverse_mask, align 8
  %9 = load i64, ptr %size.addr, align 8
  %sub19 = sub i64 %9, 1
  %10 = load i64, ptr %delta_inverse_mask, align 8
  %and = and i64 %sub19, %10
  %11 = load i32, ptr %lg_delta, align 4
  %sh_prom20 = zext i32 %11 to i64
  %shr = lshr i64 %and, %sh_prom20
  %and21 = and i64 %shr, 3
  %conv22 = trunc i64 %and21 to i32
  store i32 %conv22, ptr %mod, align 4
  %12 = load i32, ptr %grp, align 4
  %add = add i32 0, %12
  %13 = load i32, ptr %mod, align 4
  %add23 = add i32 %add, %13
  store i32 %add23, ptr %index, align 4
  %14 = load i32, ptr %index, align 4
  store i32 %14, ptr %retval, align 4
  br label %return

return:                                           ; preds = %cond.end16, %if.then4, %if.then
  %15 = load i32, ptr %retval, align 4
  ret i32 %15
}